target datalayout = "e-m:e-p270:32:32-p271:32:32-p272:64:64-i64:64-i128:128-f80:128-n8:16:32:64-S128"
target triple = "x86_64-pc-linux-gnu"

@enterprises_hashtable = internal global ptr null, align 8
@.str.54 = private unnamed_addr constant [2 x i8] c"r\00", align 1
@.str.55 = private unnamed_addr constant [3 x i8] c" \09\00", align 1
@.str.56 = private unnamed_addr constant [3 x i8] c"\0D\0A\00", align 1
@.str.58 = private unnamed_addr constant [1 x i8] zeroinitializer, align 1

; Function Attrs: null_pointer_is_valid sspstrong uwtable
define internal void @parse_enterprises_line(ptr noundef %0) #3 {
  %2 = alloca ptr, align 8
  %3 = alloca ptr, align 8
  %4 = alloca ptr, align 8
  %5 = alloca ptr, align 8
  %6 = alloca i32, align 4
  %7 = alloca i8, align 1
  %8 = alloca i32, align 4
  store ptr %0, ptr %2, align 8
  call void @llvm.lifetime.start.p0(i64 8, ptr %3) #16
  call void @llvm.lifetime.start.p0(i64 8, ptr %4) #16
  call void @llvm.lifetime.start.p0(i64 8, ptr %5) #16
  call void @llvm.lifetime.start.p0(i64 4, ptr %6) #16
  call void @llvm.lifetime.start.p0(i64 1, ptr %7) #16
  store i8 0, ptr %7, align 1
  %9 = load ptr, ptr %2, align 8
  %10 = call ptr @strchr(ptr noundef %9, i32 noundef 35) #17
  store ptr %10, ptr %3, align 8
  %11 = icmp ne ptr %10, null
  br i1 %11, label %12, label %14

12:                                               ; preds = %1
  %13 = load ptr, ptr %3, align 8
  store i8 0, ptr %13, align 1
  store i8 1, ptr %7, align 1
  br label %14

14:                                               ; preds = %12, %1
  %15 = load ptr, ptr %2, align 8
  %16 = call ptr @strtok(ptr noundef %15, ptr noundef @.str.55) #16
  store ptr %16, ptr %4, align 8
  %17 = load ptr, ptr %4, align 8
  %18 = icmp ne ptr %17, null
  br i1 %18, label %20, label %19

19:                                               ; preds = %14
  store i32 1, ptr %8, align 4
  br label %46

20:                                               ; preds = %14
  %21 = call ptr @strtok(ptr noundef null, ptr noundef @.str.58) #16
  store ptr %21, ptr %5, align 8
  %22 = load ptr, ptr %5, align 8
  %23 = icmp ne ptr %22, null
  br i1 %23, label %24, label %30

24:                                               ; preds = %20
  %25 = load i8, ptr %7, align 1, !range !8, !noundef !9
  %26 = trunc i8 %25 to i1
  br i1 %26, label %27, label %30

27:                                               ; preds = %24
  %28 = load ptr, ptr %5, align 8
  %29 = call ptr @g_strchomp(ptr noundef %28)
  store ptr %29, ptr %5, align 8
  br label %30

30:                                               ; preds = %27, %24, %20
  %31 = load ptr, ptr %5, align 8
  %32 = icmp ne ptr %31, null
  br i1 %32, label %34, label %33

33:                                               ; preds = %30
  store i32 1, ptr %8, align 4
  br label %46

34:                                               ; preds = %30
  %35 = load ptr, ptr %4, align 8
  %36 = call zeroext i1 @ws_strtou32(ptr noundef %35, ptr noundef null, ptr noundef %6)
  br i1 %36, label %38, label %37

37:                                               ; preds = %34
  store i32 1, ptr %8, align 4
  br label %46

38:                                               ; preds = %34
  %39 = load ptr, ptr @enterprises_hashtable, align 8
  %40 = load i32, ptr %6, align 4
  %41 = zext i32 %40 to i64
  %42 = inttoptr i64 %41 to ptr
  %43 = load ptr, ptr %5, align 8
  %44 = call noalias ptr @g_strdup(ptr noundef %43)
  %45 = call i32 @g_hash_table_insert(ptr noundef %39, ptr noundef %42, ptr noundef %44)
  store i32 0, ptr %8, align 4
  br label %46

46:                                               ; preds = %38, %37, %33, %19
  call void @llvm.lifetime.end.p0(i64 1, ptr %7) #16
  call void @llvm.lifetime.end.p0(i64 4, ptr %6) #16
  call void @llvm.lifetime.end.p0(i64 8, ptr %5) #16
  call void @llvm.lifetime.end.p0(i64 8, ptr %4) #16
  call void @llvm.lifetime.end.p0(i64 8, ptr %3) #16
  %47 = load i32, ptr %8, align 4
  switch i32 %47, label %49 [
    i32 0, label %48
    i32 1, label %48
  ]

48:                                               ; preds = %46, %46
  ret void

49:                                               ; preds = %46
  unreachable
}

; Function Attrs: null_pointer_is_valid sspstrong uwtable
define internal i32 @fgetline(ptr noundef %0, i32 noundef %1, ptr noundef %2) #3 {
  %4 = alloca i32, align 4
  %5 = alloca ptr, align 8
  %6 = alloca i32, align 4
  %7 = alloca ptr, align 8
  %8 = alloca i32, align 4
  store ptr %0, ptr %5, align 8
  store i32 %1, ptr %6, align 4
  store ptr %2, ptr %7, align 8
  %9 = load ptr, ptr %5, align 8
  %10 = load i32, ptr %6, align 4
  %11 = load ptr, ptr %7, align 8
  %12 = call ptr @fgets(ptr noundef %9, i32 noundef %10, ptr noundef %11)
  %13 = icmp ne ptr %12, null
  br i1 %13, label %14, label %23

14:                                               ; preds = %3
  call void @llvm.lifetime.start.p0(i64 4, ptr %8) #16
  %15 = load ptr, ptr %5, align 8
  %16 = call i64 @strcspn(ptr noundef %15, ptr noundef @.str.56) #17
  %17 = trunc i64 %16 to i32
  store i32 %17, ptr %8, align 4
  %18 = load ptr, ptr %5, align 8
  %19 = load i32, ptr %8, align 4
  %20 = sext i32 %19 to i64
  %21 = getelementptr i8, ptr %18, i64 %20
  store i8 0, ptr %21, align 1
  %22 = load i32, ptr %8, align 4
  store i32 %22, ptr %4, align 4
  call void @llvm.lifetime.end.p0(i64 4, ptr %8) #16
  br label %24

23:                                               ; preds = %3
  store i32 -1, ptr %4, align 4
  br label %24

24:                                               ; preds = %23, %14
  %25 = load i32, ptr %4, align 4
  ret i32 %25
}

; Function Attrs: null_pointer_is_valid sspstrong uwtable
define internal zeroext i1 @parse_enterprises_file(ptr noundef %0) #3 {
  %2 = alloca i1, align 1
  %3 = alloca ptr, align 8
  %4 = alloca ptr, align 8
  %5 = alloca [1024 x i8], align 16
  %6 = alloca i32, align 4
  store ptr %0, ptr %3, align 8
  call void @llvm.lifetime.start.p0(i64 8, ptr %4) #16
  call void @llvm.lifetime.start.p0(i64 1024, ptr %5) #16
  %7 = load ptr, ptr %3, align 8
  %8 = call noalias ptr @fopen(ptr noundef %7, ptr noundef @.str.54)
  store ptr %8, ptr %4, align 8
  %9 = load ptr, ptr %4, align 8
  %10 = icmp eq ptr %9, null
  br i1 %10, label %11, label %12

11:                                               ; preds = %1
  store i1 false, ptr %2, align 1
  store i32 1, ptr %6, align 4
  br label %23

12:                                               ; preds = %1
  br label %13

13:                                               ; preds = %18, %12
  %14 = getelementptr inbounds [1024 x i8], ptr %5, i64 0, i64 0
  %15 = load ptr, ptr %4, align 8
  %16 = call i32 @fgetline(ptr noundef %14, i32 noundef 1024, ptr noundef %15)
  %17 = icmp sge i32 %16, 0
  br i1 %17, label %18, label %20

18:                                               ; preds = %13
  %19 = getelementptr inbounds [1024 x i8], ptr %5, i64 0, i64 0
  call void @parse_enterprises_line(ptr noundef %19)
  br label %13, !llvm.loop !61

20:                                               ; preds = %13
  %21 = load ptr, ptr %4, align 8
  %22 = call i32 @fclose(ptr noundef %21)
  store i1 true, ptr %2, align 1
  store i32 1, ptr %6, align 4
  br label %23

23:                                               ; preds = %20, %11
  call void @llvm.lifetime.end.p0(i64 1024, ptr %5) #16
  call void @llvm.lifetime.end.p0(i64 8, ptr %4) #16
  %24 = load i1, ptr %2, align 1
  ret i1 %24
}