; Function Attrs: null_pointer_is_valid sspstrong uwtable
define internal fastcc void @parse_enterprises_file(ptr noundef readonly captures(none) %0) unnamed_addr #3 {
  %2 = alloca i32, align 4
  %3 = alloca [1024 x i8], align 16
  call void @llvm.lifetime.start.p0(i64 1024, ptr nonnull %3) #24
  %4 = tail call noalias ptr @fopen(ptr noundef %0, ptr noundef nonnull @.str.54)
  %.not = icmp eq ptr %4, null
  br i1 %.not, label %36, label %.split5

.split5:                                          ; preds = %1
  %5 = call ptr @fgets(ptr noundef nonnull %3, i32 noundef 1024, ptr noundef nonnull %4)
  %.not.i = icmp eq ptr %5, null
  br i1 %.not.i, label %._crit_edge, label %fgetline.exit

fgetline.exit:                                    ; preds = %.split5
  %6 = call i64 @strcspn(ptr noundef nonnull %3, ptr noundef nonnull @.str.56) #28
  %sext.i = shl i64 %6, 32
  %7 = ashr exact i64 %sext.i, 32
  %8 = getelementptr i8, ptr %3, i64 %7
  store i8 0, ptr %8, align 1
  %9 = and i64 %6, 2147483648
  %10 = icmp eq i64 %9, 0
  br i1 %10, label %.split, label %._crit_edge

.split:                                           ; preds = %fgetline.exit, %fgetline.exit11
  call void @llvm.lifetime.start.p0(i64 4, ptr nonnull %2) #24
  %11 = call ptr @strchr(ptr noundef nonnull dereferenceable(1) %3, i32 noundef 35) #28
  %.not.not.i = icmp eq ptr %11, null
  br i1 %.not.not.i, label %13, label %12

12:                                               ; preds = %.split
  store i8 0, ptr %11, align 1
  br label %13

13:                                               ; preds = %12, %.split
  %14 = call ptr @strtok(ptr noundef nonnull %3, ptr noundef nonnull @.str.55) #24
  %.not13.i = icmp eq ptr %14, null
  br i1 %.not13.i, label %parse_enterprises_line.exit, label %15

15:                                               ; preds = %13
  %16 = call ptr @strtok(ptr noundef null, ptr noundef nonnull @.str.58) #24
  %.not14.i = icmp eq ptr %16, null
  %brmerge.i = or i1 %.not.not.i, %.not14.i
  br i1 %brmerge.i, label %19, label %17

17:                                               ; preds = %15
  %18 = call ptr @g_strchomp(ptr noundef nonnull %16)
  br label %19

19:                                               ; preds = %17, %15
  %.09.i = phi ptr [ %18, %17 ], [ %16, %15 ]
  %.not.i7 = icmp eq ptr %.09.i, null
  br i1 %.not.i7, label %parse_enterprises_line.exit, label %20

20:                                               ; preds = %19
  %21 = call zeroext i1 @ws_strtou32(ptr noundef nonnull %14, ptr noundef null, ptr noundef nonnull %2)
  br i1 %21, label %22, label %parse_enterprises_line.exit

22:                                               ; preds = %20
  %23 = load ptr, ptr @enterprises_hashtable, align 8
  %24 = load i32, ptr %2, align 4
  %25 = zext i32 %24 to i64
  %26 = inttoptr i64 %25 to ptr
  %27 = call noalias ptr @g_strdup(ptr noundef nonnull %.09.i)
  %28 = call i32 @g_hash_table_insert(ptr noundef %23, ptr noundef %26, ptr noundef %27)
  br label %parse_enterprises_line.exit

parse_enterprises_line.exit:                      ; preds = %13, %19, %20, %22
  call void @llvm.lifetime.end.p0(i64 4, ptr nonnull %2) #24
  %29 = call ptr @fgets(ptr noundef nonnull %3, i32 noundef 1024, ptr noundef nonnull %4)
  %.not.i8 = icmp eq ptr %29, null
  br i1 %.not.i8, label %._crit_edge, label %fgetline.exit11

fgetline.exit11:                                  ; preds = %parse_enterprises_line.exit
  %30 = call i64 @strcspn(ptr noundef nonnull %3, ptr noundef nonnull @.str.56) #28
  %sext.i9 = shl i64 %30, 32
  %31 = ashr exact i64 %sext.i9, 32
  %32 = getelementptr i8, ptr %3, i64 %31
  store i8 0, ptr %32, align 1
  %33 = and i64 %30, 2147483648
  %34 = icmp eq i64 %33, 0
  br i1 %34, label %.split, label %._crit_edge, !llvm.loop !69

._crit_edge:                                      ; preds = %parse_enterprises_line.exit, %fgetline.exit11, %.split5, %fgetline.exit
  %35 = call i32 @fclose(ptr noundef nonnull %4)
  br label %36

36:                                               ; preds = %1, %._crit_edge
  call void @llvm.lifetime.end.p0(i64 1024, ptr nonnull %3) #24
  ret void
}